; Function Attrs: mustprogress norecurse uwtable
define hidden noundef i32 @main(i32 noundef %0, ptr nocapture noundef readonly %1) local_unnamed_addr #0 personality ptr @__gxx_personality_v0 {
  %3 = alloca %"struct.cv::Ptr", align 8
  %4 = alloca %"class.std::__cxx11::basic_string", align 8
  %5 = alloca %"class.std::__cxx11::basic_string", align 8
  %6 = alloca %"class.std::allocator", align 1
  %7 = alloca %"class.std::__cxx11::basic_string", align 8
  call void @_ZNSt7__cxx1112basic_stringIcSt11char_traitsIcESaIcEEC1Ev(ptr noundef nonnull align 8 dereferenceable(32) %4) #4
  invoke void @_ZN2cv6stereo16QuasiDenseStereo6createENS_5Size_IiEENSt7__cxx1112basic_stringIcSt11char_traitsIcESaIcEEE(ptr dead_on_unwind nonnull writable sret(%"struct.cv::Ptr") align 8 %3, i64 21474836485, ptr noundef nonnull %4)
          to label %8 unwind label %15

8:                                                ; preds = %2
  call void @_ZNSt7__cxx1112basic_stringIcSt11char_traitsIcESaIcEED1Ev(ptr noundef nonnull align 8 dereferenceable(32) %4) #4
  call void @_ZNSaIcEC1Ev(ptr noundef nonnull align 1 dereferenceable(1) %6) #4
  invoke void @_ZNSt7__cxx1112basic_stringIcSt11char_traitsIcESaIcEEC1EPKcRKS3_(ptr noundef nonnull align 8 dereferenceable(32) %5, ptr noundef nonnull @.str, ptr noundef nonnull align 1 dereferenceable(1) %6)
          to label %9 unwind label %17

9:                                                ; preds = %8
  call void @_ZNSaIcED1Ev(ptr noundef nonnull align 1 dereferenceable(1) %6) #4
  %10 = icmp sgt i32 %0, 1
  br i1 %10, label %11, label %21

11:                                               ; preds = %9
  %12 = getelementptr inbounds i8, ptr %1, i64 8
  %13 = load ptr, ptr %12, align 8
  %14 = invoke noundef nonnull align 8 dereferenceable(32) ptr @_ZNSt7__cxx1112basic_stringIcSt11char_traitsIcESaIcEEaSEPKc(ptr noundef nonnull align 8 dereferenceable(32) %5, ptr noundef %13)
          to label %21 unwind label %19

15:                                               ; preds = %2
  %16 = landingpad { ptr, i32 }
          cleanup
  call void @_ZNSt7__cxx1112basic_stringIcSt11char_traitsIcESaIcEED1Ev(ptr noundef nonnull align 8 dereferenceable(32) %4) #4
  br label %69

17:                                               ; preds = %8
  %18 = landingpad { ptr, i32 }
          cleanup
  call void @_ZNSaIcED1Ev(ptr noundef nonnull align 1 dereferenceable(1) %6) #4
  br label %68

19:                                               ; preds = %21, %11
  %20 = landingpad { ptr, i32 }
          cleanup
  br label %67

21:                                               ; preds = %11, %9
  %22 = load ptr, ptr %3, align 8
  invoke void @_ZNSt7__cxx1112basic_stringIcSt11char_traitsIcESaIcEEC1ERKS4_(ptr noundef nonnull align 8 dereferenceable(32) %7, ptr noundef nonnull align 8 dereferenceable(32) %5)
          to label %23 unwind label %19

23:                                               ; preds = %21
  %24 = load ptr, ptr %22, align 8
  %25 = getelementptr inbounds i8, ptr %24, i64 24
  %26 = load ptr, ptr %25, align 8
  %27 = invoke noundef i32 %26(ptr noundef nonnull align 8 dereferenceable(68) %22, ptr noundef nonnull %7)
          to label %28 unwind label %65

28:                                               ; preds = %23
  call void @_ZNSt7__cxx1112basic_stringIcSt11char_traitsIcESaIcEED1Ev(ptr noundef nonnull align 8 dereferenceable(32) %7) #4
  call void @_ZNSt7__cxx1112basic_stringIcSt11char_traitsIcESaIcEED1Ev(ptr noundef nonnull align 8 dereferenceable(32) %5) #4
  %29 = getelementptr inbounds i8, ptr %3, i64 8
  %30 = load ptr, ptr %29, align 8
  %.not.i.i.i.i = icmp eq ptr %30, null
  br i1 %.not.i.i.i.i, label %_ZN2cv3PtrINS_6stereo16QuasiDenseStereoEED2Ev.exit, label %31

31:                                               ; preds = %28
  %32 = getelementptr inbounds i8, ptr %30, i64 8
  %33 = load atomic i64, ptr %32 acquire, align 8
  %34 = icmp eq i64 %33, 4294967297
  %35 = trunc i64 %33 to i32
  br i1 %34, label %36, label %41

36:                                               ; preds = %31
  store i32 0, ptr %32, align 8
  %37 = getelementptr inbounds i8, ptr %30, i64 12
  store i32 0, ptr %37, align 4
  %38 = load ptr, ptr %30, align 8
  %39 = getelementptr inbounds i8, ptr %38, i64 16
  %40 = load ptr, ptr %39, align 8
  call void %40(ptr noundef nonnull align 8 dereferenceable(16) %30) #4
  br label %_ZNSt16_Sp_counted_baseILN9__gnu_cxx12_Lock_policyE2EE24_M_release_last_use_coldEv.exit.sink.split.i.i.i.i.i

41:                                               ; preds = %31
  %42 = load i8, ptr @__libc_single_threaded, align 1
  %.not.i.i.i.i.i = icmp eq i8 %42, 0
  br i1 %.not.i.i.i.i.i, label %45, label %43

43:                                               ; preds = %41
  %44 = add nsw i32 %35, -1
  store i32 %44, ptr %32, align 4
  br label %47

45:                                               ; preds = %41
  %46 = atomicrmw volatile add ptr %32, i32 -1 acq_rel, align 4
  br label %47

47:                                               ; preds = %45, %43
  %.0.i.i.i.i.i = phi i32 [ %35, %43 ], [ %46, %45 ]
  %48 = icmp eq i32 %.0.i.i.i.i.i, 1
  br i1 %48, label %49, label %_ZN2cv3PtrINS_6stereo16QuasiDenseStereoEED2Ev.exit

49:                                               ; preds = %47
  %50 = load ptr, ptr %30, align 8
  %51 = getelementptr inbounds i8, ptr %50, i64 16
  %52 = load ptr, ptr %51, align 8
  call void %52(ptr noundef nonnull align 8 dereferenceable(16) %30) #4
  %53 = getelementptr inbounds i8, ptr %30, i64 12
  %54 = load i8, ptr @__libc_single_threaded, align 1
  %.not.i.i.i.i.i.i.i = icmp eq i8 %54, 0
  br i1 %.not.i.i.i.i.i.i.i, label %58, label %55

55:                                               ; preds = %49
  %56 = load i32, ptr %53, align 4
  %57 = add nsw i32 %56, -1
  store i32 %57, ptr %53, align 4
  br label %60

58:                                               ; preds = %49
  %59 = atomicrmw volatile add ptr %53, i32 -1 acq_rel, align 4
  br label %60

60:                                               ; preds = %58, %55
  %.0.i.i.i.i.i.i.i = phi i32 [ %56, %55 ], [ %59, %58 ]
  %61 = icmp eq i32 %.0.i.i.i.i.i.i.i, 1
  br i1 %61, label %_ZNSt16_Sp_counted_baseILN9__gnu_cxx12_Lock_policyE2EE24_M_release_last_use_coldEv.exit.sink.split.i.i.i.i.i, label %_ZN2cv3PtrINS_6stereo16QuasiDenseStereoEED2Ev.exit

_ZNSt16_Sp_counted_baseILN9__gnu_cxx12_Lock_policyE2EE24_M_release_last_use_coldEv.exit.sink.split.i.i.i.i.i: ; preds = %60, %36
  %62 = load ptr, ptr %30, align 8
  %63 = getelementptr inbounds i8, ptr %62, i64 24
  %64 = load ptr, ptr %63, align 8
  call void %64(ptr noundef nonnull align 8 dereferenceable(16) %30) #4
  br label %_ZN2cv3PtrINS_6stereo16QuasiDenseStereoEED2Ev.exit

_ZN2cv3PtrINS_6stereo16QuasiDenseStereoEED2Ev.exit: ; preds = %28, %47, %60, %_ZNSt16_Sp_counted_baseILN9__gnu_cxx12_Lock_policyE2EE24_M_release_last_use_coldEv.exit.sink.split.i.i.i.i.i
  ret i32 0

65:                                               ; preds = %23
  %66 = landingpad { ptr, i32 }
          cleanup
  call void @_ZNSt7__cxx1112basic_stringIcSt11char_traitsIcESaIcEED1Ev(ptr noundef nonnull align 8 dereferenceable(32) %7) #4
  br label %67

67:                                               ; preds = %65, %19
  %.pn = phi { ptr, i32 } [ %66, %65 ], [ %20, %19 ]
  call void @_ZNSt7__cxx1112basic_stringIcSt11char_traitsIcESaIcEED1Ev(ptr noundef nonnull align 8 dereferenceable(32) %5) #4
  br label %68

68:                                               ; preds = %67, %17
  %.pn.pn = phi { ptr, i32 } [ %.pn, %67 ], [ %18, %17 ]
  call void @_ZN2cv3PtrINS_6stereo16QuasiDenseStereoEED2Ev(ptr noundef nonnull align 8 dereferenceable(16) %3) #4
  br label %69

69:                                               ; preds = %68, %15
  %.pn.pn.pn = phi { ptr, i32 } [ %.pn.pn, %68 ], [ %16, %15 ]
  resume { ptr, i32 } %.pn.pn.pn
}